target datalayout = "e-m:e-p270:32:32-p271:32:32-p272:64:64-i64:64-i128:128-f80:128-n8:16:32:64-S128"
target triple = "x86_64-pc-linux-gnu"

%struct.expert_field = type { i32, i32 }
%struct._h248_curr_info_t = type { ptr, ptr, ptr, ptr, ptr, ptr, ptr, ptr, ptr, ptr }
%struct._gcp_trx_t = type { ptr, i32, i32, i32, ptr, ptr, i32 }
%struct._gcp_terms_t = type { ptr, ptr, ptr }
%struct._gcp_cmd_t = type { i32, ptr, i32, %struct._gcp_terms_t, ptr, ptr, ptr, i32 }
%struct._asn1_ctx_t = type { i32, i32, i8, ptr, ptr, ptr, ptr, ptr, %struct.anon.2, %struct.anon.5, %struct.anon.6, ptr }
%struct.anon.2 = type { i32, i8, i8, i8, ptr, ptr, i32, i32, ptr, ptr, ptr, %union.anon }
%union.anon = type { %struct.anon.3 }
%struct.anon.3 = type { ptr }
%struct.anon.5 = type { ptr, ptr, ptr }
%struct.anon.6 = type { i32, i8, ptr, i32, i32, ptr, ptr, ptr, %union.anon.7 }
%union.anon.7 = type { %struct.anon.8 }
%struct.anon.8 = type { ptr }

@ei_h248_errored_command = internal global %struct.expert_field zeroinitializer, align 4
@curr_info = internal global %struct._h248_curr_info_t zeroinitializer, align 8
@error_code = internal global i32 0, align 4

; Function Attrs: nounwind uwtable
define internal i32 @dissect_h248_T_errorCode(i1 noundef zeroext %0, ptr noundef %1, i32 noundef %2, ptr noundef %3, ptr noundef %4, i32 noundef %5) #0 {
  %7 = alloca i8, align 1
  %8 = alloca ptr, align 8
  %9 = alloca i32, align 4
  %10 = alloca ptr, align 8
  %11 = alloca ptr, align 8
  %12 = alloca i32, align 4
  %13 = zext i1 %0 to i8
  store i8 %13, ptr %7, align 1
  store ptr %1, ptr %8, align 8
  store i32 %2, ptr %9, align 4
  store ptr %3, ptr %10, align 8
  store ptr %4, ptr %11, align 8
  store i32 %5, ptr %12, align 4
  %14 = load i8, ptr %7, align 1
  %15 = trunc i8 %14 to i1
  %16 = load ptr, ptr %10, align 8
  %17 = load ptr, ptr %11, align 8
  %18 = load ptr, ptr %8, align 8
  %19 = load i32, ptr %9, align 4
  %20 = load i32, ptr %12, align 4
  %21 = call i32 @dissect_ber_integer(i1 noundef zeroext %15, ptr noundef %16, ptr noundef %17, ptr noundef %18, i32 noundef %19, i32 noundef %20, ptr noundef @error_code)
  store i32 %21, ptr %9, align 4
  %22 = load ptr, ptr %10, align 8
  %23 = getelementptr inbounds %struct._asn1_ctx_t, ptr %22, i32 0, i32 3
  %24 = load ptr, ptr %23, align 8
  %25 = load ptr, ptr %10, align 8
  %26 = getelementptr inbounds %struct._asn1_ctx_t, ptr %25, i32 0, i32 4
  %27 = load ptr, ptr %26, align 8
  %28 = call ptr @expert_add_info(ptr noundef %24, ptr noundef %27, ptr noundef @ei_h248_errored_command)
  %29 = getelementptr inbounds %struct._h248_curr_info_t, ptr @curr_info, i32 0, i32 4
  %30 = load ptr, ptr %29, align 8
  %31 = icmp ne ptr %30, null
  br i1 %31, label %32, label %37

32:                                               ; preds = %6
  %33 = load i32, ptr @error_code, align 4
  %34 = getelementptr inbounds %struct._h248_curr_info_t, ptr @curr_info, i32 0, i32 4
  %35 = load ptr, ptr %34, align 8
  %36 = getelementptr inbounds %struct._gcp_cmd_t, ptr %35, i32 0, i32 7
  store i32 %33, ptr %36, align 8
  br label %47

37:                                               ; preds = %6
  %38 = getelementptr inbounds %struct._h248_curr_info_t, ptr @curr_info, i32 0, i32 1
  %39 = load ptr, ptr %38, align 8
  %40 = icmp ne ptr %39, null
  br i1 %40, label %41, label %46

41:                                               ; preds = %37
  %42 = load i32, ptr @error_code, align 4
  %43 = getelementptr inbounds %struct._h248_curr_info_t, ptr @curr_info, i32 0, i32 1
  %44 = load ptr, ptr %43, align 8
  %45 = getelementptr inbounds %struct._gcp_trx_t, ptr %44, i32 0, i32 6
  store i32 %42, ptr %45, align 8
  br label %46

46:                                               ; preds = %41, %37
  br label %47

47:                                               ; preds = %46, %32
  %48 = load i32, ptr %9, align 4
  ret i32 %48
}