; Function Attrs: nounwind uwtable
define internal i32 @dissect_h248_T_errorCode(i1 noundef zeroext %0, ptr noundef %1, i32 noundef %2, ptr noundef %3, ptr noundef %4, i32 noundef %5) #0 {
  %7 = tail call i32 @dissect_ber_integer(i1 noundef zeroext %0, ptr noundef %3, ptr noundef %4, ptr noundef %1, i32 noundef %2, i32 noundef %5, ptr noundef nonnull @error_code) #7
  %8 = getelementptr inbounds nuw i8, ptr %3, i64 16
  %9 = load ptr, ptr %8, align 8
  %10 = getelementptr inbounds nuw i8, ptr %3, i64 24
  %11 = load ptr, ptr %10, align 8
  %12 = tail call ptr @expert_add_info(ptr noundef %9, ptr noundef %11, ptr noundef nonnull @ei_h248_errored_command) #7
  %13 = load ptr, ptr getelementptr inbounds nuw (i8, ptr @curr_info, i64 32), align 8
  %.not = icmp eq ptr %13, null
  br i1 %.not, label %17, label %14

14:                                               ; preds = %6
  %15 = load i32, ptr @error_code, align 4
  %16 = getelementptr inbounds nuw i8, ptr %13, i64 72
  store i32 %15, ptr %16, align 8
  br label %22

17:                                               ; preds = %6
  %18 = load ptr, ptr getelementptr inbounds nuw (i8, ptr @curr_info, i64 8), align 8
  %.not9 = icmp eq ptr %18, null
  br i1 %.not9, label %22, label %19

19:                                               ; preds = %17
  %20 = load i32, ptr @error_code, align 4
  %21 = getelementptr inbounds nuw i8, ptr %18, i64 40
  store i32 %20, ptr %21, align 8
  br label %22

22:                                               ; preds = %17, %19, %14
  ret i32 %7
}